; Function Attrs: nounwind sspstrong uwtable
define internal void @uhci_detach(ptr noundef readonly captures(none) %port1) #0 {
entry:
  %opaque = getelementptr inbounds nuw i8, ptr %port1, i64 40
  %0 = load ptr, ptr %opaque, align 8
  %index = getelementptr inbounds nuw i8, ptr %port1, i64 48
  %1 = load i32, ptr %index, align 8
  %idxprom = sext i32 %1 to i64
  %2 = load ptr, ptr %port1, align 8
  %3 = getelementptr i8, ptr %0, i64 3304
  %.val = load ptr, ptr %3, align 8
  %tobool.not1.i = icmp eq ptr %.val, null
  br i1 %tobool.not1.i, label %uhci_async_cancel_device.exit, label %land.rhs.i

land.rhs.i:                                       ; preds = %entry, %for.inc.i
  %queue.02.i = phi ptr [ %4, %for.inc.i ], [ %.val, %entry ]
  %next.i = getelementptr inbounds nuw i8, ptr %queue.02.i, i64 24
  %4 = load ptr, ptr %next.i, align 8
  %ep.i = getelementptr inbounds nuw i8, ptr %queue.02.i, i64 16
  %5 = load ptr, ptr %ep.i, align 8
  %dev1.i = getelementptr inbounds nuw i8, ptr %5, i64 16
  %6 = load ptr, ptr %dev1.i, align 8
  %cmp.i = icmp eq ptr %6, %2
  br i1 %cmp.i, label %if.then.i, label %for.inc.i

if.then.i:                                        ; preds = %land.rhs.i
  tail call fastcc void @uhci_queue_free(ptr noundef nonnull %queue.02.i, ptr noundef nonnull @.str.4)
  br label %for.inc.i

for.inc.i:                                        ; preds = %if.then.i, %land.rhs.i
  %tobool.not.i = icmp eq ptr %4, null
  br i1 %tobool.not.i, label %uhci_async_cancel_device.exit, label %land.rhs.i, !llvm.loop !12

uhci_async_cancel_device.exit:                    ; preds = %for.inc.i, %entry
  %ctrl.idx = mul nsw i64 %idxprom, 80
  %7 = getelementptr i8, ptr %0, i64 3200
  %ctrl = getelementptr i8, ptr %7, i64 %ctrl.idx
  %8 = load i16, ptr %ctrl, align 8
  %9 = and i16 %8, 1
  %tobool.not.not = icmp eq i16 %9, 0
  %and3 = and i16 %8, -4
  %10 = or disjoint i16 %and3, 2
  %11 = select i1 %tobool.not.not, i16 %8, i16 %10
  %12 = and i16 %11, 4
  %13 = or disjoint i16 %9, %12
  %.not = icmp eq i16 %13, 0
  br i1 %.not, label %16, label %14

14:                                               ; preds = %uhci_async_cancel_device.exit
  %tobool11.not.not = icmp eq i16 %12, 0
  %and15 = and i16 %11, -13
  %15 = or disjoint i16 %and15, 8
  %simplifycfg.merge = select i1 %tobool11.not.not, i16 %11, i16 %15
  store i16 %simplifycfg.merge, ptr %ctrl, align 8
  br label %16

16:                                               ; preds = %uhci_async_cancel_device.exit, %14
  %cmd.i = getelementptr inbounds nuw i8, ptr %0, i64 3072
  %17 = load i16, ptr %cmd.i, align 16
  %18 = and i16 %17, 8
  %tobool1.not.i = icmp eq i16 %18, 0
  br i1 %tobool1.not.i, label %uhci_resume.exit, label %if.then2.i

if.then2.i:                                       ; preds = %16
  %or.i = or i16 %17, 16
  store i16 %or.i, ptr %cmd.i, align 16
  %status.i = getelementptr inbounds nuw i8, ptr %0, i64 3074
  %19 = load i16, ptr %status.i, align 2
  %20 = or i16 %19, 4
  store i16 %20, ptr %status.i, align 2
  %status2.i.i = getelementptr inbounds nuw i8, ptr %0, i64 3085
  %21 = load i8, ptr %status2.i.i, align 1
  %22 = and i8 %21, 1
  %tobool.not.i.i = icmp eq i8 %22, 0
  br i1 %tobool.not.i.i, label %lor.lhs.false.i.i, label %land.lhs.true.i.i

land.lhs.true.i.i:                                ; preds = %if.then2.i
  %intr.i.i = getelementptr inbounds nuw i8, ptr %0, i64 3076
  %23 = load i16, ptr %intr.i.i, align 4
  %24 = and i16 %23, 4
  %tobool3.not.i.i = icmp eq i16 %24, 0
  br i1 %tobool3.not.i.i, label %lor.lhs.false.i.i, label %if.then.i.i

lor.lhs.false.i.i:                                ; preds = %land.lhs.true.i.i, %if.then2.i
  %25 = and i8 %21, 2
  %tobool7.not.i.i = icmp eq i8 %25, 0
  %intr28.i.phi.trans.insert.i.phi.trans.insert = getelementptr inbounds nuw i8, ptr %0, i64 3076
  %.pre.i.pre = load i16, ptr %intr28.i.phi.trans.insert.i.phi.trans.insert, align 4
  %26 = and i16 %.pre.i.pre, 8
  %tobool12.not.i.i = icmp eq i16 %26, 0
  %or.cond = select i1 %tobool7.not.i.i, i1 true, i1 %tobool12.not.i.i
  br i1 %or.cond, label %lor.lhs.false13.i.i, label %if.then.i.i

lor.lhs.false13.i.i:                              ; preds = %lor.lhs.false.i.i
  %27 = and i16 %19, 2
  %tobool16.not.i.i = icmp eq i16 %27, 0
  %28 = and i16 %.pre.i.pre, 1
  %tobool21.not.i.i = icmp eq i16 %28, 0
  %or.cond.i = select i1 %tobool16.not.i.i, i1 true, i1 %tobool21.not.i.i
  br i1 %or.cond.i, label %land.lhs.true27.i.i, label %if.then.i.i

land.lhs.true27.i.i:                              ; preds = %lor.lhs.false13.i.i
  %29 = and i16 %.pre.i.pre, 2
  %30 = and i16 %19, 24
  %31 = or disjoint i16 %29, %30
  %or.cond11.i.i = icmp eq i16 %31, 0
  br i1 %or.cond11.i.i, label %uhci_update_irq.exit.i, label %if.then.i.i

if.then.i.i:                                      ; preds = %lor.lhs.false.i.i, %land.lhs.true27.i.i, %lor.lhs.false13.i.i, %land.lhs.true.i.i
  br label %uhci_update_irq.exit.i

uhci_update_irq.exit.i:                           ; preds = %if.then.i.i, %land.lhs.true27.i.i
  %level.0.i.i = phi i32 [ 1, %if.then.i.i ], [ 0, %land.lhs.true27.i.i ]
  %irq.i.i = getelementptr inbounds nuw i8, ptr %0, i64 3288
  %32 = load ptr, ptr %irq.i.i, align 8
  tail call void @qemu_set_irq(ptr noundef %32, i32 noundef %level.0.i.i) #11
  br label %uhci_resume.exit

uhci_resume.exit:                                 ; preds = %16, %uhci_update_irq.exit.i
  ret void
}